


      / RIM formatted tape                                                Page 1


    1              / RIM formatted tape
    2              / TITLE "AUTOMATIC DISASSEMBLY OF /home/armstrong/PDP8/so-much-stuff.com/pdp8/tapes/dec/dec-08-lbaa-pm BY D8TAPE"
    3              ////////////////////////////////////////////////////////////////////////////////
    4              /
    5              /   Automatic Disassembly of /home/armstrong/PDP8/so-much-stuff.com/pdp8/tapes/dec/dec-08-lbaa-pm
    6              /   Generated 2021 05 30 15:00:12
    7              /   Generated by d8tape version 0.352
    8              /   Visit http://www.pdp12.org/pdp8/software/index.html for updates
    9              /
   10              /   Symbol format:
   11              /       AIx   -- Auto-index variables (address range 001x)
   12              /       Caaaa -- Constants (non-unique)
   13              /       Daaaa -- Data (read/write variables)
   14              /       Kvvvv -- Program-wide unique constants
   15              /       Laaaa -- Labels for control flow targets
   16              /       Saaaa -- Subroutines
   17              /
   18              /   Where:
   19              /       aaaa is the definition address
   20              /       vvvv is the value of the constant
   21              /       x    is the last digit of the address 001x for auto-index variables
   22              /
   23              /   0145 locations used, 0116 code and 0027 data
   24              ////////////////////////////////////////////////////////////////////////////////
   25              
   26        7612  *7612
   27 07612  0000  D7612,  0000                / AND   C0000                           
   28 07613  0000  D7613,  0000                / AND   C0000                           
   29 07614  0000  D7614,  0000                / AND   C0000                           
   30 07615  0000  D7615,  0000                / AND   C0000                           
   31 07616  0000  D7616,  0000                / AND   C0000                           
   32 07617  1212      TAD   D7612             /                                       @@7617=1212
   33 07620  7402      HLT                     /                                       @@7620=7402
   34 07621  7402      HLT                     /                                       @@7621=7402
   35 07622  7402      HLT                     /                                       @@7622=7402
   36 07623  7402      HLT                     /                                       @@7623=7402
   37 07624  7402      HLT                     /                                       @@7624=7402
   38 07625  7402      HLT                     /                                       @@7625=7402
   39              
   40              ////////////////////////////////////////////////////////////////////////////////
   41              /
   42              /   SUBROUTINE:  S7626
   43              /
   44              /   Called from:
   45              /   7713 7724 
   46              /   Total 0002 (2) calls
   47              ////////////////////////////////////////////////////////////////////////////////
   48              S7626,
   49 07626  0000      0                       / return area
   50              L7627,



      / RIM formatted tape                                                Page 2


   51 07627  3212      DCA   D7612             /                                       @@7627=3212
   52              L7630,
   53 07630  4260      JMS   S7660             /                                       @@7630=4260
   54 07631  1300      TAD   C7700             /                                       @@7631=1300
   55 07632  7750      SPA SNA CLA             /                                       @@7632=7750
   56 07633  5237      JMP   L7637             /                                       @@7633=5237
   57 07634  2212      ISZ   D7612             /                                       @@7634=2212
   58 07635  7040      CMA                     /                                       @@7635=7040
   59 07636  5227      JMP   L7627             /                                       @@7636=5227
   60              L7637,
   61 07637  1212      TAD   D7612             /                                       @@7637=1212
   62 07640  7640      SZA CLA                 /                                       @@7640=7640
   63 07641  5230      JMP   L7630             /                                       @@7641=5230
   64 07642  1214      TAD   D7614             /                                       @@7642=1214
   65 07643  0274      AND   C7674             /                                       @@7643=0274
   66 07644  1341      TAD   C7741             /                                       @@7644=1341
   67 07645  7510      SPA                     /                                       @@7645=7510
   68 07646  2226      ISZ   S7626             /                                       @@7646=2226
   69 07647  7750      SPA SNA CLA             /                                       @@7647=7750
   70 07650  5626      JMP I S7626             / return                                @@7650=5626
   71 07651  1214      TAD   D7614             /                                       @@7651=1214
   72 07652  0256      AND   C7656             /                                       @@7652=0256
   73 07653  1257      TAD   C7657             /                                       @@7653=1257
   74 07654  3213      DCA   D7613             /                                       @@7654=3213
   75 07655  5230      JMP   L7630             /                                       @@7655=5230
   76 07656  0070  C7656,  0070                / AND   C0070                           
   77 07657  6201  C7657,  6201                / CDF0                                  
   78              
   79              ////////////////////////////////////////////////////////////////////////////////
   80              /
   81              /   SUBROUTINE:  S7660
   82              /
   83              /   Called from:
   84              /   7630 7722 
   85              /   Total 0002 (2) calls
   86              ////////////////////////////////////////////////////////////////////////////////
   87              S7660,
   88 07660  0000      0                       / return area
   89 07661  0000  D7661,  0000                / AND   C0000                           
   90              L7662,
   91 07662  6031      KSF                     / Skip if keyboard flag is a 1.         @@7662=6031
   92 07663  5262      JMP   L7662             /                                       @@7663=5262
   93 07664  6036      KRB                     / Clear AC, clear keyboard flag, and r  @@7664=6036
   94              L7665,
   95 07665  3214      DCA   D7614             /                                       @@7665=3214
   96 07666  1214      TAD   D7614             /                                       @@7666=1214
   97 07667  5660      JMP I S7660             / return                                @@7667=5660
   98              L7670,
   99 07670  6011      RSF                     / Skip if reader flag is a 1.           @@7670=6011
  100 07671  5270      JMP   L7670             /                                       @@7671=5270



      / RIM formatted tape                                                Page 3


  101 07672  6016  C7672,  6016                / 6016                                  
  102 07673  5265      JMP   L7665             /                                       @@7673=5265
  103 07674  0300  C7674,  0300                / AND   C7700                           
  104              L7675,
  105 07675  4343      JMS   S7743             /                                       @@7675=4343
  106 07676  7041      CIA                     /                                       @@7676=7041
  107 07677  1215      TAD   D7615             /                                       @@7677=1215
  108 07700  7402  C7700,  7402                / HLT                                   
  109              L7701,
  110 07701  6032      KCC                     / Clear AC and clear keyboard flag.     @@7701=6032
  111 07702  6014      RFC                     / Clear reader flag and reader buffer,  @@7702=6014
  112 07703  6214      RDF                     / Read data field into AC6-8.  Bit 0-5  @@7703=6214
  113 07704  1257      TAD   C7657             /                                       @@7704=1257
  114 07705  3213      DCA   D7613             /                                       @@7705=3213
  115 07706  7604      LAS                     /                                       @@7706=7604
  116 07707  7700      SMA CLA                 /                                       @@7707=7700
  117 07710  1353      TAD   C7753             /                                       @@7710=1353
  118 07711  1352      TAD   C7752             /                                       @@7711=1352
  119 07712  3261      DCA   D7661             /                                       @@7712=3261
  120              L7713,
  121 07713  4226      JMS   S7626             /                                       @@7713=4226
  122 07714  5313      JMP   L7713             /                                       @@7714=5313
  123              L7715,
  124 07715  3215      DCA   D7615             /                                       @@7715=3215
  125 07716  1213      TAD   D7613             /                                       @@7716=1213
  126 07717  3336      DCA   L7736             /                                       @@7717=3336
  127 07720  1214      TAD   D7614             /                                       @@7720=1214
  128 07721  3376  C7721,  3376                / DCA   C7776                           
  129 07722  4260      JMS   S7660             /                                       @@7722=4260
  130 07723  3355      DCA   D7755             /                                       @@7723=3355
  131 07724  4226      JMS   S7626             /                                       @@7724=4226
  132 07725  5275      JMP   L7675             /                                       @@7725=5275
  133 07726  4343      JMS   S7743             /                                       @@7726=4343
  134 07727  7420      SNL                     /                                       @@7727=7420
  135 07730  5336      JMP   L7736             /                                       @@7730=5336
  136 07731  3216      DCA   D7616             /                                       @@7731=3216
  137              L7732,
  138 07732  1376  C7732,  1376                / TAD   C7776                           
  139 07733  1355      TAD   D7755             /                                       @@7733=1355
  140 07734  1215      TAD   D7615             /                                       @@7734=1215
  141 07735  5315      JMP   L7715             /                                       @@7735=5315
  142              L7736,
  143 07736  6201  D7736,  6201                / CDF0                                  
  144 07737  3616      DCA I D7616             /                                       @@7737=3616
  145 07740  2216      ISZ   D7616             /                                       @@7740=2216
  146 07741  7600  C7741,  7600                / 7600                                  
  147 07742  5332      JMP   L7732             /                                       @@7742=5332
  148              
  149              ////////////////////////////////////////////////////////////////////////////////
  150              /



      / RIM formatted tape                                                Page 4


  151              /   SUBROUTINE:  S7743
  152              /
  153              /   Called from:
  154              /   7675 7726 
  155              /   Total 0002 (2) calls
  156              ////////////////////////////////////////////////////////////////////////////////
  157              S7743,
  158 07743  0000      0                       / return area
  159 07744  1376  C7744,  1376                / TAD   C7776                           
  160 07745  7106      CLL RTL                 /                                       @@7745=7106
  161 07746  7006      RTL                     /                                       @@7746=7006
  162 07747  7006      RTL                     /                                       @@7747=7006
  163 07750  1355      TAD   D7755             /                                       @@7750=1355
  164 07751  5743      JMP I S7743             / return                                @@7751=5743
  165 07752  5262  C7752,  5262                / JMP   L7662                           
  166 07753  0006  C7753,  0006                / AND   C0006                           
  167 07754  0000  C7754,  0000                / AND   C0000                           
  168 07755  0000  D7755,  0000                / AND   C0000                           
  169              
  170        7777  *7777
  171 07777  5301      JMP   L7701             /                                       @@7777=5301
  172              
  173              $

      No detected errors
      No links generated
